target datalayout = "e-m:e-p270:32:32-p271:32:32-p272:64:64-i64:64-i128:128-f80:128-n8:16:32:64-S128"
target triple = "x86_64-pc-linux-gnu"

%"class.llvm::MCAssembler" = type <{ ptr, %"class.std::unique_ptr", %"class.std::unique_ptr.2", %"class.std::unique_ptr.10", i8, i8, [6 x i8], %"class.llvm::SmallVector", %"class.llvm::SmallVector.18", %"struct.llvm::MCDwarfLineTableParams", [5 x i8], %"class.llvm::SmallPtrSet", i32, [4 x i8] }>
%"class.std::unique_ptr" = type { %"struct.std::__uniq_ptr_data" }
%"struct.std::__uniq_ptr_data" = type { %"class.std::__uniq_ptr_impl" }
%"class.std::__uniq_ptr_impl" = type { %"class.std::tuple" }
%"class.std::tuple" = type { %"struct.std::_Tuple_impl" }
%"struct.std::_Tuple_impl" = type { %"struct.std::_Head_base.1" }
%"struct.std::_Head_base.1" = type { ptr }
%"class.std::unique_ptr.2" = type { %"struct.std::__uniq_ptr_data.3" }
%"struct.std::__uniq_ptr_data.3" = type { %"class.std::__uniq_ptr_impl.4" }
%"class.std::__uniq_ptr_impl.4" = type { %"class.std::tuple.5" }
%"class.std::tuple.5" = type { %"struct.std::_Tuple_impl.6" }
%"struct.std::_Tuple_impl.6" = type { %"struct.std::_Head_base.9" }
%"struct.std::_Head_base.9" = type { ptr }
%"class.std::unique_ptr.10" = type { %"struct.std::__uniq_ptr_data.11" }
%"struct.std::__uniq_ptr_data.11" = type { %"class.std::__uniq_ptr_impl.12" }
%"class.std::__uniq_ptr_impl.12" = type { %"class.std::tuple.13" }
%"class.std::tuple.13" = type { %"struct.std::_Tuple_impl.14" }
%"struct.std::_Tuple_impl.14" = type { %"struct.std::_Head_base.17" }
%"struct.std::_Head_base.17" = type { ptr }
%"class.llvm::SmallVector" = type { %"class.llvm::SmallVectorImpl" }
%"class.llvm::SmallVectorImpl" = type { %"class.llvm::SmallVectorTemplateBase" }
%"class.llvm::SmallVectorTemplateBase" = type { %"class.llvm::SmallVectorTemplateCommon" }
%"class.llvm::SmallVectorTemplateCommon" = type { %"class.llvm::SmallVectorBase" }
%"class.llvm::SmallVectorBase" = type { ptr, i32, i32 }
%"class.llvm::SmallVector.18" = type { %"class.llvm::SmallVectorImpl.19" }
%"class.llvm::SmallVectorImpl.19" = type { %"class.llvm::SmallVectorTemplateBase.20" }
%"class.llvm::SmallVectorTemplateBase.20" = type { %"class.llvm::SmallVectorTemplateCommon.21" }
%"class.llvm::SmallVectorTemplateCommon.21" = type { %"class.llvm::SmallVectorBase" }
%"struct.llvm::MCDwarfLineTableParams" = type { i8, i8, i8 }
%"class.llvm::SmallPtrSet" = type { %"class.llvm::SmallPtrSetImpl.base", [32 x ptr] }
%"class.llvm::SmallPtrSetImpl.base" = type { %"class.llvm::SmallPtrSetImplBase.base" }
%"class.llvm::SmallPtrSetImplBase.base" = type <{ ptr, ptr, i32, i32, i32 }>
%"class.llvm::MCSection" = type <{ ptr, ptr, ptr, ptr, %"struct.llvm::Align", [3 x i8], i32, i32, i32, i8, [7 x i8], %"class.llvm::MCDummyFragment", %"class.llvm::SmallVector.155", %"class.llvm::StringRef", i32, [4 x i8] }>
%"struct.llvm::Align" = type { i8 }
%"class.llvm::MCDummyFragment" = type { %"class.llvm::MCFragment.base", [2 x i8] }
%"class.llvm::MCFragment.base" = type <{ ptr, ptr, i64, i32, i8, i8 }>
%"class.llvm::SmallVector.155" = type { %"class.llvm::SmallVectorImpl.156", %"struct.llvm::SmallVectorStorage.159" }
%"class.llvm::SmallVectorImpl.156" = type { %"class.llvm::SmallVectorTemplateBase.157" }
%"class.llvm::SmallVectorTemplateBase.157" = type { %"class.llvm::SmallVectorTemplateCommon.158" }
%"class.llvm::SmallVectorTemplateCommon.158" = type { %"class.llvm::SmallVectorBase" }
%"struct.llvm::SmallVectorStorage.159" = type { [24 x i8] }
%"class.llvm::StringRef" = type { ptr, i64 }
%"class.llvm::MCFragment" = type <{ ptr, ptr, i64, i32, i8, i8, [2 x i8] }>
%"struct.llvm::MCSection::iterator" = type { ptr }
%"struct.llvm::MCSection::FragList" = type { ptr, ptr }

; Function Attrs: mustprogress nounwind uwtable
define linkonce_odr hidden void @_ZN4llvm9MCSection8iteratorC2Ev(ptr noundef nonnull align 8 dereferenceable(8) %0) unnamed_addr #1 comdat align 2 {
  %2 = alloca ptr, align 8
  store ptr %0, ptr %2, align 8
  %3 = load ptr, ptr %2, align 8
  %4 = getelementptr inbounds nuw %"struct.llvm::MCSection::iterator", ptr %3, i32 0, i32 0
  store ptr null, ptr %4, align 8
  ret void
}

; Function Attrs: mustprogress nounwind uwtable
define linkonce_odr hidden void @_ZN4llvm9MCSection8iteratorC2EPNS_10MCFragmentE(ptr noundef nonnull align 8 dereferenceable(8) %0, ptr noundef %1) unnamed_addr #1 comdat align 2 {
  %3 = alloca ptr, align 8
  %4 = alloca ptr, align 8
  store ptr %0, ptr %3, align 8
  store ptr %1, ptr %4, align 8
  %5 = load ptr, ptr %3, align 8
  %6 = getelementptr inbounds nuw %"struct.llvm::MCSection::iterator", ptr %5, i32 0, i32 0
  %7 = load ptr, ptr %4, align 8
  store ptr %7, ptr %6, align 8
  ret void
}

; Function Attrs: mustprogress nounwind uwtable
define linkonce_odr hidden noundef nonnull align 8 dereferenceable(8) ptr @_ZN4llvm9MCSection8iteratorppEv(ptr noundef nonnull align 8 dereferenceable(8) %0) #1 comdat align 2 {
  %2 = alloca ptr, align 8
  store ptr %0, ptr %2, align 8
  %3 = load ptr, ptr %2, align 8
  %4 = getelementptr inbounds nuw %"struct.llvm::MCSection::iterator", ptr %3, i32 0, i32 0
  %5 = load ptr, ptr %4, align 8
  %6 = getelementptr inbounds nuw %"class.llvm::MCFragment", ptr %5, i32 0, i32 0
  %7 = load ptr, ptr %6, align 8
  %8 = getelementptr inbounds nuw %"struct.llvm::MCSection::iterator", ptr %3, i32 0, i32 0
  store ptr %7, ptr %8, align 8
  ret ptr %3
}

; Function Attrs: mustprogress nounwind uwtable
define linkonce_odr hidden noundef zeroext i1 @_ZNK4llvm10MCFragment15hasInstructionsEv(ptr noundef nonnull align 8 dereferenceable(30) %0) #1 comdat align 2 {
  %2 = alloca ptr, align 8
  store ptr %0, ptr %2, align 8
  %3 = load ptr, ptr %2, align 8
  %4 = getelementptr inbounds nuw %"class.llvm::MCFragment", ptr %3, i32 0, i32 5
  %5 = load i8, ptr %4, align 1
  %6 = and i8 %5, 1
  %7 = trunc i8 %6 to i1
  ret i1 %7
}

; Function Attrs: mustprogress nounwind uwtable
define linkonce_odr hidden noundef zeroext i1 @_ZNK4llvm11MCAssembler17isBundlingEnabledEv(ptr noundef nonnull align 8 dereferenceable(372) %0) #1 comdat align 2 {
  %2 = alloca ptr, align 8
  store ptr %0, ptr %2, align 8
  %3 = load ptr, ptr %2, align 8
  %4 = getelementptr inbounds nuw %"class.llvm::MCAssembler", ptr %3, i32 0, i32 12
  %5 = load i32, ptr %4, align 8
  %6 = icmp ne i32 %5, 0
  ret i1 %6
}

; Function Attrs: mustprogress nounwind uwtable
define linkonce_odr hidden noundef nonnull align 8 dereferenceable(30) ptr @_ZNK4llvm9MCSection8iteratordeEv(ptr noundef nonnull align 8 dereferenceable(8) %0) #1 comdat align 2 {
  %2 = alloca ptr, align 8
  store ptr %0, ptr %2, align 8
  %3 = load ptr, ptr %2, align 8
  %4 = getelementptr inbounds nuw %"struct.llvm::MCSection::iterator", ptr %3, i32 0, i32 0
  %5 = load ptr, ptr %4, align 8
  ret ptr %5
}

; Function Attrs: mustprogress nounwind uwtable
define linkonce_odr hidden noundef zeroext i1 @_ZNK4llvm9MCSection8iteratorneERKS1_(ptr noundef nonnull align 8 dereferenceable(8) %0, ptr noundef nonnull align 8 dereferenceable(8) %1) #1 comdat align 2 {
  %3 = alloca ptr, align 8
  %4 = alloca ptr, align 8
  store ptr %0, ptr %3, align 8
  store ptr %1, ptr %4, align 8
  %5 = load ptr, ptr %3, align 8
  %6 = getelementptr inbounds nuw %"struct.llvm::MCSection::iterator", ptr %5, i32 0, i32 0
  %7 = load ptr, ptr %6, align 8
  %8 = load ptr, ptr %4, align 8
  %9 = getelementptr inbounds nuw %"struct.llvm::MCSection::iterator", ptr %8, i32 0, i32 0
  %10 = load ptr, ptr %9, align 8
  %11 = icmp ne ptr %7, %10
  ret i1 %11
}

; Function Attrs: mustprogress nounwind uwtable
define linkonce_odr hidden ptr @_ZNK4llvm9MCSection3endEv(ptr noundef nonnull align 8 dereferenceable(148) %0) #1 comdat align 2 {
  %2 = alloca %"struct.llvm::MCSection::iterator", align 8
  %3 = alloca ptr, align 8
  store ptr %0, ptr %3, align 8
  call void @llvm.memset.p0.i64(ptr align 8 %2, i8 0, i64 8, i1 false)
  call void @_ZN4llvm9MCSection8iteratorC2Ev(ptr noundef nonnull align 8 dereferenceable(8) %2) #8
  %4 = getelementptr inbounds nuw %"struct.llvm::MCSection::iterator", ptr %2, i32 0, i32 0
  %5 = load ptr, ptr %4, align 8
  ret ptr %5
}

; Function Attrs: mustprogress nounwind uwtable
define linkonce_odr hidden ptr @_ZNK4llvm9MCSection5beginEv(ptr noundef nonnull align 8 dereferenceable(148) %0) #1 comdat align 2 {
  %2 = alloca %"struct.llvm::MCSection::iterator", align 8
  %3 = alloca ptr, align 8
  store ptr %0, ptr %3, align 8
  %4 = load ptr, ptr %3, align 8
  %5 = getelementptr inbounds nuw %"class.llvm::MCSection", ptr %4, i32 0, i32 1
  %6 = load ptr, ptr %5, align 8
  %7 = getelementptr inbounds nuw %"struct.llvm::MCSection::FragList", ptr %6, i32 0, i32 0
  %8 = load ptr, ptr %7, align 8
  call void @_ZN4llvm9MCSection8iteratorC2EPNS_10MCFragmentE(ptr noundef nonnull align 8 dereferenceable(8) %2, ptr noundef %8)
  %9 = getelementptr inbounds nuw %"struct.llvm::MCSection::iterator", ptr %2, i32 0, i32 0
  %10 = load ptr, ptr %9, align 8
  ret ptr %10
}

; Function Attrs: mustprogress nounwind uwtable
define linkonce_odr hidden void @_ZN4llvm9MCSection12setHasLayoutEb(ptr noundef nonnull align 8 dereferenceable(148) %0, i1 noundef zeroext %1) #1 comdat align 2 {
  %3 = alloca ptr, align 8
  %4 = alloca i8, align 1
  store ptr %0, ptr %3, align 8
  %5 = zext i1 %1 to i8
  store i8 %5, ptr %4, align 1
  %6 = load ptr, ptr %3, align 8
  %7 = load i8, ptr %4, align 1
  %8 = trunc i8 %7 to i1
  %9 = getelementptr inbounds nuw %"class.llvm::MCSection", ptr %6, i32 0, i32 9
  %10 = zext i1 %8 to i8
  %11 = load i8, ptr %9, align 8
  %12 = shl i8 %10, 2
  %13 = and i8 %11, -5
  %14 = or i8 %13, %12
  store i8 %14, ptr %9, align 8
  ret void
}

; Function Attrs: mustprogress nounwind uwtable
define linkonce_odr hidden noundef zeroext i1 @_ZNK4llvm9MCSection9hasLayoutEv(ptr noundef nonnull align 8 dereferenceable(148) %0) #1 comdat align 2 {
  %2 = alloca ptr, align 8
  store ptr %0, ptr %2, align 8
  %3 = load ptr, ptr %2, align 8
  %4 = getelementptr inbounds nuw %"class.llvm::MCSection", ptr %3, i32 0, i32 9
  %5 = load i8, ptr %4, align 8
  %6 = lshr i8 %5, 2
  %7 = and i8 %6, 1
  %8 = trunc i8 %7 to i1
  ret i1 %8
}

; Function Attrs: mustprogress nounwind uwtable
define dso_local void @_ZNK4llvm11MCAssembler11ensureValidERNS_9MCSectionE(ptr noundef nonnull align 8 dereferenceable(372) %0, ptr noundef nonnull align 8 dereferenceable(148) %1) #1 align 2 {
  %3 = alloca ptr, align 8
  %4 = alloca ptr, align 8
  %5 = alloca ptr, align 8
  %6 = alloca i64, align 8
  %7 = alloca ptr, align 8
  %8 = alloca %"struct.llvm::MCSection::iterator", align 8
  %9 = alloca %"struct.llvm::MCSection::iterator", align 8
  %10 = alloca ptr, align 8
  store ptr %0, ptr %3, align 8
  store ptr %1, ptr %4, align 8
  %11 = load ptr, ptr %3, align 8
  %12 = load ptr, ptr %4, align 8
  %13 = call noundef zeroext i1 @_ZNK4llvm9MCSection9hasLayoutEv(ptr noundef nonnull align 8 dereferenceable(148) %12)
  br i1 %13, label %14, label %15

14:                                               ; preds = %2
  br label %49

15:                                               ; preds = %2
  %16 = load ptr, ptr %4, align 8
  call void @_ZN4llvm9MCSection12setHasLayoutEb(ptr noundef nonnull align 8 dereferenceable(148) %16, i1 noundef zeroext true)
  store ptr null, ptr %5, align 8
  store i64 0, ptr %6, align 8
  %17 = load ptr, ptr %4, align 8
  store ptr %17, ptr %7, align 8
  %18 = load ptr, ptr %7, align 8
  %19 = call ptr @_ZNK4llvm9MCSection5beginEv(ptr noundef nonnull align 8 dereferenceable(148) %18)
  %20 = getelementptr inbounds nuw %"struct.llvm::MCSection::iterator", ptr %8, i32 0, i32 0
  store ptr %19, ptr %20, align 8
  %21 = load ptr, ptr %7, align 8
  %22 = call ptr @_ZNK4llvm9MCSection3endEv(ptr noundef nonnull align 8 dereferenceable(148) %21)
  %23 = getelementptr inbounds nuw %"struct.llvm::MCSection::iterator", ptr %9, i32 0, i32 0
  store ptr %22, ptr %23, align 8
  br label %24

24:                                               ; preds = %47, %15
  %25 = call noundef zeroext i1 @_ZNK4llvm9MCSection8iteratorneERKS1_(ptr noundef nonnull align 8 dereferenceable(8) %8, ptr noundef nonnull align 8 dereferenceable(8) %9)
  br i1 %25, label %26, label %49

26:                                               ; preds = %24
  %27 = call noundef nonnull align 8 dereferenceable(30) ptr @_ZNK4llvm9MCSection8iteratordeEv(ptr noundef nonnull align 8 dereferenceable(8) %8)
  store ptr %27, ptr %10, align 8
  %28 = load i64, ptr %6, align 8
  %29 = load ptr, ptr %10, align 8
  %30 = getelementptr inbounds nuw %"class.llvm::MCFragment", ptr %29, i32 0, i32 2
  store i64 %28, ptr %30, align 8
  %31 = call noundef zeroext i1 @_ZNK4llvm11MCAssembler17isBundlingEnabledEv(ptr noundef nonnull align 8 dereferenceable(372) %11)
  br i1 %31, label %32, label %41

32:                                               ; preds = %26
  %33 = load ptr, ptr %10, align 8
  %34 = call noundef zeroext i1 @_ZNK4llvm10MCFragment15hasInstructionsEv(ptr noundef nonnull align 8 dereferenceable(30) %33)
  br i1 %34, label %35, label %41

35:                                               ; preds = %32
  %36 = load ptr, ptr %5, align 8
  %37 = load ptr, ptr %10, align 8
  call void @_ZNK4llvm11MCAssembler12layoutBundleEPNS_10MCFragmentES2_(ptr noundef nonnull align 8 dereferenceable(372) %11, ptr noundef %36, ptr noundef %37)
  %38 = load ptr, ptr %10, align 8
  %39 = getelementptr inbounds nuw %"class.llvm::MCFragment", ptr %38, i32 0, i32 2
  %40 = load i64, ptr %39, align 8
  store i64 %40, ptr %6, align 8
  br label %41

41:                                               ; preds = %35, %32, %26
  %42 = load ptr, ptr %10, align 8
  %43 = call noundef i64 @_ZNK4llvm11MCAssembler19computeFragmentSizeERKNS_10MCFragmentE(ptr noundef nonnull align 8 dereferenceable(372) %11, ptr noundef nonnull align 8 dereferenceable(30) %42)
  %44 = load i64, ptr %6, align 8
  %45 = add i64 %44, %43
  store i64 %45, ptr %6, align 8
  %46 = load ptr, ptr %10, align 8
  store ptr %46, ptr %5, align 8
  br label %47

47:                                               ; preds = %41
  %48 = call noundef nonnull align 8 dereferenceable(8) ptr @_ZN4llvm9MCSection8iteratorppEv(ptr noundef nonnull align 8 dereferenceable(8) %8)
  br label %24

49:                                               ; preds = %24, %14
  ret void
}

; Function Attrs: mustprogress nounwind uwtable
define linkonce_odr hidden noundef ptr @_ZNK4llvm10MCFragment9getParentEv(ptr noundef nonnull align 8 dereferenceable(30) %0) #1 comdat align 2 {
  %2 = alloca ptr, align 8
  store ptr %0, ptr %2, align 8
  %3 = load ptr, ptr %2, align 8
  %4 = getelementptr inbounds nuw %"class.llvm::MCFragment", ptr %3, i32 0, i32 1
  %5 = load ptr, ptr %4, align 8
  ret ptr %5
}

; Function Attrs: mustprogress nounwind uwtable
define dso_local noundef i64 @_ZNK4llvm11MCAssembler17getFragmentOffsetERKNS_10MCFragmentE(ptr noundef nonnull align 8 dereferenceable(372) %0, ptr noundef nonnull align 8 dereferenceable(30) %1) #1 align 2 {
  %3 = alloca ptr, align 8
  %4 = alloca ptr, align 8
  store ptr %0, ptr %3, align 8
  store ptr %1, ptr %4, align 8
  %5 = load ptr, ptr %3, align 8
  %6 = load ptr, ptr %4, align 8
  %7 = call noundef ptr @_ZNK4llvm10MCFragment9getParentEv(ptr noundef nonnull align 8 dereferenceable(30) %6)
  call void @_ZNK4llvm11MCAssembler11ensureValidERNS_9MCSectionE(ptr noundef nonnull align 8 dereferenceable(372) %5, ptr noundef nonnull align 8 dereferenceable(148) %7)
  %8 = load ptr, ptr %4, align 8
  %9 = getelementptr inbounds nuw %"class.llvm::MCFragment", ptr %8, i32 0, i32 2
  %10 = load i64, ptr %9, align 8
  ret i64 %10
}

; Function Attrs: mustprogress nounwind uwtable
define linkonce_odr hidden noundef ptr @_ZNK4llvm9MCSection11curFragListEv(ptr noundef nonnull align 8 dereferenceable(148) %0) #1 comdat align 2 {
  %2 = alloca ptr, align 8
  store ptr %0, ptr %2, align 8
  %3 = load ptr, ptr %2, align 8
  %4 = getelementptr inbounds nuw %"class.llvm::MCSection", ptr %3, i32 0, i32 1
  %5 = load ptr, ptr %4, align 8
  ret ptr %5
}

; Function Attrs: mustprogress nounwind uwtable
define dso_local noundef i64 @_ZNK4llvm11MCAssembler21getSectionAddressSizeERKNS_9MCSectionE(ptr noundef nonnull align 8 dereferenceable(372) %0, ptr noundef nonnull align 8 dereferenceable(148) %1) #1 align 2 {
  %3 = alloca ptr, align 8
  %4 = alloca ptr, align 8
  %5 = alloca ptr, align 8
  store ptr %0, ptr %3, align 8
  store ptr %1, ptr %4, align 8
  %6 = load ptr, ptr %3, align 8
  %7 = load ptr, ptr %4, align 8
  %8 = call noundef ptr @_ZNK4llvm9MCSection11curFragListEv(ptr noundef nonnull align 8 dereferenceable(148) %7)
  %9 = getelementptr inbounds nuw %"struct.llvm::MCSection::FragList", ptr %8, i32 0, i32 1
  %10 = load ptr, ptr %9, align 8
  store ptr %10, ptr %5, align 8
  %11 = load ptr, ptr %5, align 8
  %12 = call noundef i64 @_ZNK4llvm11MCAssembler17getFragmentOffsetERKNS_10MCFragmentE(ptr noundef nonnull align 8 dereferenceable(372) %6, ptr noundef nonnull align 8 dereferenceable(30) %11)
  %13 = load ptr, ptr %5, align 8
  %14 = call noundef i64 @_ZNK4llvm11MCAssembler19computeFragmentSizeERKNS_10MCFragmentE(ptr noundef nonnull align 8 dereferenceable(372) %6, ptr noundef nonnull align 8 dereferenceable(30) %13)
  %15 = add i64 %12, %14
  ret i64 %15
}