; Function Attrs: mustprogress nounwind uwtable
define dso_local noundef i64 @_ZNK4llvm11MCAssembler21getSectionAddressSizeERKNS_9MCSectionE(ptr noundef nonnull align 8 dereferenceable(372) %0, ptr nocapture noundef nonnull readonly align 8 dereferenceable(148) %1) local_unnamed_addr #0 align 2 {
  %3 = getelementptr inbounds nuw i8, ptr %1, i64 8
  %4 = load ptr, ptr %3, align 8
  %5 = getelementptr inbounds nuw i8, ptr %4, i64 8
  %6 = load ptr, ptr %5, align 8
  %7 = getelementptr inbounds nuw i8, ptr %6, i64 8
  %8 = load ptr, ptr %7, align 8
  %9 = getelementptr inbounds nuw i8, ptr %8, i64 48
  %10 = load i8, ptr %9, align 8
  %11 = and i8 %10, 4
  %.not.i.i = icmp eq i8 %11, 0
  br i1 %.not.i.i, label %12, label %_ZNK4llvm11MCAssembler17getFragmentOffsetERKNS_10MCFragmentE.exit

12:                                               ; preds = %2
  %13 = or disjoint i8 %10, 4
  store i8 %13, ptr %9, align 8
  %14 = getelementptr inbounds nuw i8, ptr %8, i64 8
  %15 = load ptr, ptr %14, align 8
  %.sroa.015.020.i.i = load ptr, ptr %15, align 8
  %.not1821.i.i = icmp eq ptr %.sroa.015.020.i.i, null
  br i1 %.not1821.i.i, label %_ZNK4llvm11MCAssembler17getFragmentOffsetERKNS_10MCFragmentE.exit, label %.lr.ph.i.i

.lr.ph.i.i:                                       ; preds = %12
  %16 = getelementptr inbounds nuw i8, ptr %0, i64 368
  br label %17

17:                                               ; preds = %26, %.lr.ph.i.i
  %.sroa.015.024.i.i = phi ptr [ %.sroa.015.020.i.i, %.lr.ph.i.i ], [ %.sroa.015.0.i.i, %26 ]
  %.023.i.i = phi ptr [ null, %.lr.ph.i.i ], [ %.sroa.015.024.i.i, %26 ]
  %.01422.i.i = phi i64 [ 0, %.lr.ph.i.i ], [ %28, %26 ]
  %18 = getelementptr inbounds nuw i8, ptr %.sroa.015.024.i.i, i64 16
  store i64 %.01422.i.i, ptr %18, align 8
  %19 = load i32, ptr %16, align 8
  %.not19.i.i = icmp eq i32 %19, 0
  br i1 %.not19.i.i, label %26, label %20

20:                                               ; preds = %17
  %21 = getelementptr inbounds nuw i8, ptr %.sroa.015.024.i.i, i64 29
  %22 = load i8, ptr %21, align 1
  %23 = trunc i8 %22 to i1
  br i1 %23, label %24, label %26

24:                                               ; preds = %20
  tail call void @_ZNK4llvm11MCAssembler12layoutBundleEPNS_10MCFragmentES2_(ptr noundef nonnull align 8 dereferenceable(372) %0, ptr noundef %.023.i.i, ptr noundef nonnull %.sroa.015.024.i.i)
  %25 = load i64, ptr %18, align 8
  br label %26

26:                                               ; preds = %24, %20, %17
  %.1.i.i = phi i64 [ %25, %24 ], [ %.01422.i.i, %20 ], [ %.01422.i.i, %17 ]
  %27 = tail call noundef i64 @_ZNK4llvm11MCAssembler19computeFragmentSizeERKNS_10MCFragmentE(ptr noundef nonnull align 8 dereferenceable(372) %0, ptr noundef nonnull align 8 dereferenceable(30) %.sroa.015.024.i.i)
  %28 = add i64 %27, %.1.i.i
  %.sroa.015.0.i.i = load ptr, ptr %.sroa.015.024.i.i, align 8
  %.not18.i.i = icmp eq ptr %.sroa.015.0.i.i, null
  br i1 %.not18.i.i, label %_ZNK4llvm11MCAssembler17getFragmentOffsetERKNS_10MCFragmentE.exit, label %17

_ZNK4llvm11MCAssembler17getFragmentOffsetERKNS_10MCFragmentE.exit: ; preds = %26, %2, %12
  %29 = getelementptr inbounds nuw i8, ptr %6, i64 16
  %30 = load i64, ptr %29, align 8
  %31 = tail call noundef i64 @_ZNK4llvm11MCAssembler19computeFragmentSizeERKNS_10MCFragmentE(ptr noundef nonnull align 8 dereferenceable(372) %0, ptr noundef nonnull align 8 dereferenceable(30) %6)
  %32 = add i64 %31, %30
  ret i64 %32
}